target datalayout = "e-m:e-p270:32:32-p271:32:32-p272:64:64-i64:64-i128:128-f80:128-n8:16:32:64-S128"
target triple = "x86_64-pc-linux-gnu"

%struct.Extra_BitMat_t_ = type { ptr, i32, i32, i32, i32, i32, i32, i32 }

; Function Attrs: nounwind uwtable
define i32 @Extra_BitMatrixLookup2(ptr noundef %0, i32 noundef %1, i32 noundef %2) #0 {
  %4 = alloca i32, align 4
  %5 = alloca ptr, align 8
  %6 = alloca i32, align 4
  %7 = alloca i32, align 4
  store ptr %0, ptr %5, align 8
  store i32 %1, ptr %6, align 4
  store i32 %2, ptr %7, align 4
  %8 = load ptr, ptr %5, align 8
  %9 = getelementptr inbounds %struct.Extra_BitMat_t_, ptr %8, i32 0, i32 5
  %10 = load i32, ptr %9, align 8
  %11 = add nsw i32 %10, 1
  store i32 %11, ptr %9, align 8
  %12 = load i32, ptr %6, align 4
  %13 = load i32, ptr %7, align 4
  %14 = icmp sgt i32 %12, %13
  br i1 %14, label %15, label %40

15:                                               ; preds = %3
  %16 = load ptr, ptr %5, align 8
  %17 = getelementptr inbounds %struct.Extra_BitMat_t_, ptr %16, i32 0, i32 0
  %18 = load ptr, ptr %17, align 8
  %19 = load i32, ptr %6, align 4
  %20 = sext i32 %19 to i64
  %21 = getelementptr inbounds ptr, ptr %18, i64 %20
  %22 = load ptr, ptr %21, align 8
  %23 = load i32, ptr %7, align 4
  %24 = load ptr, ptr %5, align 8
  %25 = getelementptr inbounds %struct.Extra_BitMat_t_, ptr %24, i32 0, i32 3
  %26 = load i32, ptr %25, align 8
  %27 = ashr i32 %23, %26
  %28 = sext i32 %27 to i64
  %29 = getelementptr inbounds i32, ptr %22, i64 %28
  %30 = load i32, ptr %29, align 4
  %31 = load i32, ptr %7, align 4
  %32 = load ptr, ptr %5, align 8
  %33 = getelementptr inbounds %struct.Extra_BitMat_t_, ptr %32, i32 0, i32 4
  %34 = load i32, ptr %33, align 4
  %35 = and i32 %31, %34
  %36 = shl i32 1, %35
  %37 = and i32 %30, %36
  %38 = icmp ugt i32 %37, 0
  %39 = zext i1 %38 to i32
  store i32 %39, ptr %4, align 4
  br label %65

40:                                               ; preds = %3
  %41 = load ptr, ptr %5, align 8
  %42 = getelementptr inbounds %struct.Extra_BitMat_t_, ptr %41, i32 0, i32 0
  %43 = load ptr, ptr %42, align 8
  %44 = load i32, ptr %7, align 4
  %45 = sext i32 %44 to i64
  %46 = getelementptr inbounds ptr, ptr %43, i64 %45
  %47 = load ptr, ptr %46, align 8
  %48 = load i32, ptr %6, align 4
  %49 = load ptr, ptr %5, align 8
  %50 = getelementptr inbounds %struct.Extra_BitMat_t_, ptr %49, i32 0, i32 3
  %51 = load i32, ptr %50, align 8
  %52 = ashr i32 %48, %51
  %53 = sext i32 %52 to i64
  %54 = getelementptr inbounds i32, ptr %47, i64 %53
  %55 = load i32, ptr %54, align 4
  %56 = load i32, ptr %6, align 4
  %57 = load ptr, ptr %5, align 8
  %58 = getelementptr inbounds %struct.Extra_BitMat_t_, ptr %57, i32 0, i32 4
  %59 = load i32, ptr %58, align 4
  %60 = and i32 %56, %59
  %61 = shl i32 1, %60
  %62 = and i32 %55, %61
  %63 = icmp ugt i32 %62, 0
  %64 = zext i1 %63 to i32
  store i32 %64, ptr %4, align 4
  br label %65

65:                                               ; preds = %40, %15
  %66 = load i32, ptr %4, align 4
  ret i32 %66
}