; Function Attrs: mustprogress nofree norecurse nosync nounwind willreturn memory(read, argmem: readwrite, inaccessiblemem: none) uwtable
define range(i32 0, 2) i32 @Extra_BitMatrixLookup2(ptr noundef captures(none) %0, i32 noundef %1, i32 noundef %2) local_unnamed_addr #8 {
  %4 = getelementptr inbounds nuw i8, ptr %0, i64 24
  %5 = load i32, ptr %4, align 8
  %6 = add nsw i32 %5, 1
  store i32 %6, ptr %4, align 8
  %7 = load ptr, ptr %0, align 8
  %8 = getelementptr inbounds nuw i8, ptr %0, i64 16
  %9 = load i32, ptr %8, align 8
  %10 = getelementptr inbounds nuw i8, ptr %0, i64 20
  %11 = load i32, ptr %10, align 4
  %. = tail call i32 @llvm.smax.i32(i32 %1, i32 %2)
  %.26 = tail call i32 @llvm.smin.i32(i32 %1, i32 %2)
  %12 = sext i32 %. to i64
  %13 = getelementptr inbounds ptr, ptr %7, i64 %12
  %14 = load ptr, ptr %13, align 8
  %15 = ashr i32 %.26, %9
  %16 = sext i32 %15 to i64
  %17 = getelementptr inbounds i32, ptr %14, i64 %16
  %18 = load i32, ptr %17, align 4
  %19 = and i32 %11, %.26
  %20 = lshr i32 %18, %19
  %.0 = and i32 %20, 1
  ret i32 %.0
}